target datalayout = "e-m:e-p270:32:32-p271:32:32-p272:64:64-i64:64-i128:128-f80:128-n8:16:32:64-S128"
target triple = "x86_64-unknown-linux-gnu"

%struct.VirtIODevice = type { %struct.DeviceState, ptr, i8, i8, i16, i64, i64, i64, i64, ptr, i16, i32, i32, ptr, %struct.MemoryListener, i16, i8, i8, i8, i8, i8, i8, i8, i8, i8, ptr, ptr, i8, i8, ptr, ptr, %union.anon.1, %struct.EventNotifier, i8 }
%struct.DeviceState = type { %struct.Object, ptr, ptr, i8, i8, i64, ptr, i32, i8, ptr, %struct.NamedGPIOListHead, %struct.NamedClockListHead, %struct.BusStateHead, i32, i32, i32, %struct.ResettableState, ptr, %struct.MemReentrancyGuard }
%struct.Object = type { ptr, ptr, ptr, i32, ptr }
%struct.NamedGPIOListHead = type { ptr }
%struct.NamedClockListHead = type { ptr }
%struct.BusStateHead = type { ptr }
%struct.ResettableState = type { i32, i8, i8 }
%struct.MemReentrancyGuard = type { i8 }
%struct.MemoryListener = type { ptr, ptr, ptr, ptr, ptr, ptr, ptr, ptr, ptr, ptr, ptr, ptr, ptr, ptr, ptr, ptr, ptr, i32, ptr, ptr, %union.anon, %union.anon.0 }
%union.anon = type { %struct.QTailQLink }
%struct.QTailQLink = type { ptr, ptr }
%union.anon.0 = type { %struct.QTailQLink }
%union.anon.1 = type { %struct.QTailQLink }
%struct.EventNotifier = type { i32, i32, i8 }
%struct.VirtQueue = type { %struct.VRing, ptr, i16, i8, i16, i8, i16, i8, i16, i8, i8, i16, i32, i16, ptr, ptr, %struct.EventNotifier, %struct.EventNotifier, i8, %struct.anon }
%struct.VRing = type { i32, i32, i32, i64, i64, i64, ptr }
%struct.anon = type { ptr, ptr }

; Function Attrs: nounwind sspstrong uwtable
define internal i64 @vring_align(i64 noundef %addr, i64 noundef %align) #0 {
entry:
  %addr.addr = alloca i64, align 8
  %align.addr = alloca i64, align 8
  store i64 %addr, ptr %addr.addr, align 8
  store i64 %align, ptr %align.addr, align 8
  %0 = load i64, ptr %addr.addr, align 8
  %1 = load i64, ptr %align.addr, align 8
  %add = add i64 %0, %1
  %sub = sub i64 %add, 1
  %2 = load i64, ptr %align.addr, align 8
  %div = udiv i64 %sub, %2
  %3 = load i64, ptr %align.addr, align 8
  %mul = mul i64 %div, %3
  ret i64 %mul
}

; Function Attrs: nounwind sspstrong uwtable
define dso_local void @virtio_queue_update_rings(ptr noundef %vdev, i32 noundef %n) #0 {
entry:
  %vdev.addr = alloca ptr, align 8
  %n.addr = alloca i32, align 4
  %vring = alloca ptr, align 8
  store ptr %vdev, ptr %vdev.addr, align 8
  store i32 %n, ptr %n.addr, align 4
  %0 = load ptr, ptr %vdev.addr, align 8
  %vq = getelementptr inbounds %struct.VirtIODevice, ptr %0, i32 0, i32 13
  %1 = load ptr, ptr %vq, align 8
  %2 = load i32, ptr %n.addr, align 4
  %idxprom = sext i32 %2 to i64
  %arrayidx = getelementptr %struct.VirtQueue, ptr %1, i64 %idxprom
  %vring1 = getelementptr inbounds %struct.VirtQueue, ptr %arrayidx, i32 0, i32 0
  store ptr %vring1, ptr %vring, align 8
  %3 = load ptr, ptr %vring, align 8
  %num = getelementptr inbounds %struct.VRing, ptr %3, i32 0, i32 0
  %4 = load i32, ptr %num, align 8
  %tobool = icmp ne i32 %4, 0
  br i1 %tobool, label %lor.lhs.false, label %if.then

lor.lhs.false:                                    ; preds = %entry
  %5 = load ptr, ptr %vring, align 8
  %desc = getelementptr inbounds %struct.VRing, ptr %5, i32 0, i32 3
  %6 = load i64, ptr %desc, align 8
  %tobool2 = icmp ne i64 %6, 0
  br i1 %tobool2, label %lor.lhs.false3, label %if.then

lor.lhs.false3:                                   ; preds = %lor.lhs.false
  %7 = load ptr, ptr %vring, align 8
  %align = getelementptr inbounds %struct.VRing, ptr %7, i32 0, i32 2
  %8 = load i32, ptr %align, align 8
  %tobool4 = icmp ne i32 %8, 0
  br i1 %tobool4, label %if.end, label %if.then

if.then:                                          ; preds = %lor.lhs.false3, %lor.lhs.false, %entry
  br label %return

if.end:                                           ; preds = %lor.lhs.false3
  %9 = load ptr, ptr %vring, align 8
  %desc5 = getelementptr inbounds %struct.VRing, ptr %9, i32 0, i32 3
  %10 = load i64, ptr %desc5, align 8
  %11 = load ptr, ptr %vring, align 8
  %num6 = getelementptr inbounds %struct.VRing, ptr %11, i32 0, i32 0
  %12 = load i32, ptr %num6, align 8
  %conv = zext i32 %12 to i64
  %mul = mul i64 %conv, 16
  %add = add i64 %10, %mul
  %13 = load ptr, ptr %vring, align 8
  %avail = getelementptr inbounds %struct.VRing, ptr %13, i32 0, i32 4
  store i64 %add, ptr %avail, align 8
  %14 = load ptr, ptr %vring, align 8
  %avail7 = getelementptr inbounds %struct.VRing, ptr %14, i32 0, i32 4
  %15 = load i64, ptr %avail7, align 8
  %16 = load ptr, ptr %vring, align 8
  %num8 = getelementptr inbounds %struct.VRing, ptr %16, i32 0, i32 0
  %17 = load i32, ptr %num8, align 8
  %conv9 = zext i32 %17 to i64
  %18 = mul i64 %conv9, 2
  %19 = add i64 4, %18
  %add10 = add i64 %15, %19
  %20 = load ptr, ptr %vring, align 8
  %align11 = getelementptr inbounds %struct.VRing, ptr %20, i32 0, i32 2
  %21 = load i32, ptr %align11, align 8
  %conv12 = zext i32 %21 to i64
  %call = call i64 @vring_align(i64 noundef %add10, i64 noundef %conv12)
  %22 = load ptr, ptr %vring, align 8
  %used = getelementptr inbounds %struct.VRing, ptr %22, i32 0, i32 5
  store i64 %call, ptr %used, align 8
  %23 = load ptr, ptr %vdev.addr, align 8
  %24 = load i32, ptr %n.addr, align 4
  call void @virtio_init_region_cache(ptr noundef %23, i32 noundef %24)
  br label %return

return:                                           ; preds = %if.end, %if.then
  ret void
}

; Function Attrs: nounwind sspstrong uwtable
define dso_local void @virtio_queue_set_addr(ptr noundef %vdev, i32 noundef %n, i64 noundef %addr) #0 {
entry:
  %vdev.addr = alloca ptr, align 8
  %n.addr = alloca i32, align 4
  %addr.addr = alloca i64, align 8
  store ptr %vdev, ptr %vdev.addr, align 8
  store i32 %n, ptr %n.addr, align 4
  store i64 %addr, ptr %addr.addr, align 8
  %0 = load ptr, ptr %vdev.addr, align 8
  %vq = getelementptr inbounds %struct.VirtIODevice, ptr %0, i32 0, i32 13
  %1 = load ptr, ptr %vq, align 8
  %2 = load i32, ptr %n.addr, align 4
  %idxprom = sext i32 %2 to i64
  %arrayidx = getelementptr %struct.VirtQueue, ptr %1, i64 %idxprom
  %vring = getelementptr inbounds %struct.VirtQueue, ptr %arrayidx, i32 0, i32 0
  %num = getelementptr inbounds %struct.VRing, ptr %vring, i32 0, i32 0
  %3 = load i32, ptr %num, align 8
  %tobool = icmp ne i32 %3, 0
  br i1 %tobool, label %if.end, label %if.then

if.then:                                          ; preds = %entry
  br label %return

if.end:                                           ; preds = %entry
  %4 = load i64, ptr %addr.addr, align 8
  %5 = load ptr, ptr %vdev.addr, align 8
  %vq1 = getelementptr inbounds %struct.VirtIODevice, ptr %5, i32 0, i32 13
  %6 = load ptr, ptr %vq1, align 8
  %7 = load i32, ptr %n.addr, align 4
  %idxprom2 = sext i32 %7 to i64
  %arrayidx3 = getelementptr %struct.VirtQueue, ptr %6, i64 %idxprom2
  %vring4 = getelementptr inbounds %struct.VirtQueue, ptr %arrayidx3, i32 0, i32 0
  %desc = getelementptr inbounds %struct.VRing, ptr %vring4, i32 0, i32 3
  store i64 %4, ptr %desc, align 8
  %8 = load ptr, ptr %vdev.addr, align 8
  %9 = load i32, ptr %n.addr, align 4
  call void @virtio_queue_update_rings(ptr noundef %8, i32 noundef %9)
  br label %return

return:                                           ; preds = %if.end, %if.then
  ret void
}