; Function Attrs: nounwind sspstrong uwtable
define dso_local void @virtio_queue_set_addr(ptr noundef %vdev, i32 noundef %n, i64 noundef %addr) local_unnamed_addr #0 {
entry:
  %vq = getelementptr inbounds nuw i8, ptr %vdev, i64 232
  %0 = load ptr, ptr %vq, align 8
  %idxprom = sext i32 %n to i64
  %arrayidx = getelementptr %struct.VirtQueue, ptr %0, i64 %idxprom
  %1 = load i32, ptr %arrayidx, align 8
  %tobool.not = icmp eq i32 %1, 0
  br i1 %tobool.not, label %return, label %if.end

if.end:                                           ; preds = %entry
  %desc = getelementptr inbounds nuw i8, ptr %arrayidx, i64 16
  store i64 %addr, ptr %desc, align 8
  %2 = load ptr, ptr %vq, align 8
  %arrayidx.i = getelementptr %struct.VirtQueue, ptr %2, i64 %idxprom
  %3 = load i32, ptr %arrayidx.i, align 8
  %tobool.not.i = icmp eq i32 %3, 0
  br i1 %tobool.not.i, label %return, label %lor.lhs.false.i

lor.lhs.false.i:                                  ; preds = %if.end
  %desc.i = getelementptr inbounds nuw i8, ptr %arrayidx.i, i64 16
  %4 = load i64, ptr %desc.i, align 8
  %tobool2.not.i = icmp eq i64 %4, 0
  br i1 %tobool2.not.i, label %return, label %lor.lhs.false3.i

lor.lhs.false3.i:                                 ; preds = %lor.lhs.false.i
  %align.i = getelementptr inbounds nuw i8, ptr %arrayidx.i, i64 8
  %5 = load i32, ptr %align.i, align 8
  %tobool4.not.i = icmp eq i32 %5, 0
  br i1 %tobool4.not.i, label %return, label %if.end.i

if.end.i:                                         ; preds = %lor.lhs.false3.i
  %conv.i = zext i32 %3 to i64
  %mul.i = shl nuw nsw i64 %conv.i, 4
  %add.i = add i64 %4, %mul.i
  %avail.i = getelementptr inbounds nuw i8, ptr %arrayidx.i, i64 24
  store i64 %add.i, ptr %avail.i, align 8
  %6 = shl nuw nsw i64 %conv.i, 1
  %conv12.i = zext i32 %5 to i64
  %add10.i = add nuw nsw i64 %6, 3
  %add.i.i = add i64 %add10.i, %add.i
  %sub.i.i = add i64 %add.i.i, %conv12.i
  %7 = urem i64 %sub.i.i, %conv12.i
  %mul.i.i = sub nuw i64 %sub.i.i, %7
  %used.i = getelementptr inbounds nuw i8, ptr %arrayidx.i, i64 32
  store i64 %mul.i.i, ptr %used.i, align 8
  tail call void @virtio_init_region_cache(ptr noundef nonnull %vdev, i32 noundef %n)
  br label %return

return:                                           ; preds = %if.end.i, %lor.lhs.false3.i, %lor.lhs.false.i, %if.end, %entry
  ret void
}